
sbhat006_lab4_part1.elf:     file format elf32-avr

Sections:
Idx Name          Size      VMA       LMA       File off  Algn
  0 .data         00000000  00800100  00800100  000001ca  2**0
                  CONTENTS, ALLOC, LOAD, DATA
  1 .text         00000176  00000000  00000000  00000054  2**1
                  CONTENTS, ALLOC, LOAD, READONLY, CODE
  2 .comment      00000030  00000000  00000000  000001ca  2**0
                  CONTENTS, READONLY
  3 .note.gnu.avr.deviceinfo 00000040  00000000  00000000  000001fc  2**2
                  CONTENTS, READONLY
  4 .debug_aranges 00000020  00000000  00000000  0000023c  2**0
                  CONTENTS, READONLY, DEBUGGING
  5 .debug_info   00000836  00000000  00000000  0000025c  2**0
                  CONTENTS, READONLY, DEBUGGING
  6 .debug_abbrev 0000078b  00000000  00000000  00000a92  2**0
                  CONTENTS, READONLY, DEBUGGING
  7 .debug_line   000002ee  00000000  00000000  0000121d  2**0
                  CONTENTS, READONLY, DEBUGGING
  8 .debug_frame  00000034  00000000  00000000  0000150c  2**2
                  CONTENTS, READONLY, DEBUGGING
  9 .debug_str    000003fc  00000000  00000000  00001540  2**0
                  CONTENTS, READONLY, DEBUGGING
 10 .debug_loc    00000048  00000000  00000000  0000193c  2**0
                  CONTENTS, READONLY, DEBUGGING
 11 .debug_ranges 00000010  00000000  00000000  00001984  2**0
                  CONTENTS, READONLY, DEBUGGING

Disassembly of section .text:

00000000 <__vectors>:
   0:	45 c0       	rjmp	.+138    	; 0x8c <__ctors_end>
   2:	00 00       	nop
   4:	4b c0       	rjmp	.+150    	; 0x9c <__bad_interrupt>
   6:	00 00       	nop
   8:	49 c0       	rjmp	.+146    	; 0x9c <__bad_interrupt>
   a:	00 00       	nop
   c:	47 c0       	rjmp	.+142    	; 0x9c <__bad_interrupt>
   e:	00 00       	nop
  10:	45 c0       	rjmp	.+138    	; 0x9c <__bad_interrupt>
  12:	00 00       	nop
  14:	43 c0       	rjmp	.+134    	; 0x9c <__bad_interrupt>
  16:	00 00       	nop
  18:	41 c0       	rjmp	.+130    	; 0x9c <__bad_interrupt>
  1a:	00 00       	nop
  1c:	3f c0       	rjmp	.+126    	; 0x9c <__bad_interrupt>
  1e:	00 00       	nop
  20:	3d c0       	rjmp	.+122    	; 0x9c <__bad_interrupt>
  22:	00 00       	nop
  24:	3b c0       	rjmp	.+118    	; 0x9c <__bad_interrupt>
  26:	00 00       	nop
  28:	39 c0       	rjmp	.+114    	; 0x9c <__bad_interrupt>
  2a:	00 00       	nop
  2c:	37 c0       	rjmp	.+110    	; 0x9c <__bad_interrupt>
  2e:	00 00       	nop
  30:	35 c0       	rjmp	.+106    	; 0x9c <__bad_interrupt>
  32:	00 00       	nop
  34:	33 c0       	rjmp	.+102    	; 0x9c <__bad_interrupt>
  36:	00 00       	nop
  38:	31 c0       	rjmp	.+98     	; 0x9c <__bad_interrupt>
  3a:	00 00       	nop
  3c:	2f c0       	rjmp	.+94     	; 0x9c <__bad_interrupt>
  3e:	00 00       	nop
  40:	2d c0       	rjmp	.+90     	; 0x9c <__bad_interrupt>
  42:	00 00       	nop
  44:	2b c0       	rjmp	.+86     	; 0x9c <__bad_interrupt>
  46:	00 00       	nop
  48:	29 c0       	rjmp	.+82     	; 0x9c <__bad_interrupt>
  4a:	00 00       	nop
  4c:	27 c0       	rjmp	.+78     	; 0x9c <__bad_interrupt>
  4e:	00 00       	nop
  50:	25 c0       	rjmp	.+74     	; 0x9c <__bad_interrupt>
  52:	00 00       	nop
  54:	23 c0       	rjmp	.+70     	; 0x9c <__bad_interrupt>
  56:	00 00       	nop
  58:	21 c0       	rjmp	.+66     	; 0x9c <__bad_interrupt>
  5a:	00 00       	nop
  5c:	1f c0       	rjmp	.+62     	; 0x9c <__bad_interrupt>
  5e:	00 00       	nop
  60:	1d c0       	rjmp	.+58     	; 0x9c <__bad_interrupt>
  62:	00 00       	nop
  64:	1b c0       	rjmp	.+54     	; 0x9c <__bad_interrupt>
  66:	00 00       	nop
  68:	19 c0       	rjmp	.+50     	; 0x9c <__bad_interrupt>
  6a:	00 00       	nop
  6c:	17 c0       	rjmp	.+46     	; 0x9c <__bad_interrupt>
  6e:	00 00       	nop
  70:	15 c0       	rjmp	.+42     	; 0x9c <__bad_interrupt>
  72:	00 00       	nop
  74:	13 c0       	rjmp	.+38     	; 0x9c <__bad_interrupt>
  76:	00 00       	nop
  78:	11 c0       	rjmp	.+34     	; 0x9c <__bad_interrupt>
  7a:	00 00       	nop
  7c:	0f c0       	rjmp	.+30     	; 0x9c <__bad_interrupt>
  7e:	00 00       	nop
  80:	0d c0       	rjmp	.+26     	; 0x9c <__bad_interrupt>
  82:	00 00       	nop
  84:	0b c0       	rjmp	.+22     	; 0x9c <__bad_interrupt>
  86:	00 00       	nop
  88:	09 c0       	rjmp	.+18     	; 0x9c <__bad_interrupt>
	...

0000008c <__ctors_end>:
  8c:	11 24       	eor	r1, r1
  8e:	1f be       	out	0x3f, r1	; 63
  90:	cf ef       	ldi	r28, 0xFF	; 255
  92:	d0 e4       	ldi	r29, 0x40	; 64
  94:	de bf       	out	0x3e, r29	; 62
  96:	cd bf       	out	0x3d, r28	; 61
  98:	02 d0       	rcall	.+4      	; 0x9e <main>
  9a:	6b c0       	rjmp	.+214    	; 0x172 <_exit>

0000009c <__bad_interrupt>:
  9c:	b1 cf       	rjmp	.-158    	; 0x0 <__vectors>

0000009e <main>:

#include <avr/io.h>


int main(void)
{
  9e:	cf 93       	push	r28
  a0:	df 93       	push	r29
  a2:	00 d0       	rcall	.+0      	; 0xa4 <main+0x6>
  a4:	cd b7       	in	r28, 0x3d	; 61
  a6:	de b7       	in	r29, 0x3e	; 62
	DDRA = 0x00; PORTA = 0xFF; // Configure port A's 8 pins as inputs
  a8:	81 e2       	ldi	r24, 0x21	; 33
  aa:	90 e0       	ldi	r25, 0x00	; 0
  ac:	fc 01       	movw	r30, r24
  ae:	10 82       	st	Z, r1
  b0:	82 e2       	ldi	r24, 0x22	; 34
  b2:	90 e0       	ldi	r25, 0x00	; 0
  b4:	2f ef       	ldi	r18, 0xFF	; 255
  b6:	fc 01       	movw	r30, r24
  b8:	20 83       	st	Z, r18
	DDRC = 0xFF; PORTC = 0x00; // Configure port B's 8 pins as outputs,
  ba:	87 e2       	ldi	r24, 0x27	; 39
  bc:	90 e0       	ldi	r25, 0x00	; 0
  be:	2f ef       	ldi	r18, 0xFF	; 255
  c0:	fc 01       	movw	r30, r24
  c2:	20 83       	st	Z, r18
  c4:	88 e2       	ldi	r24, 0x28	; 40
  c6:	90 e0       	ldi	r25, 0x00	; 0
  c8:	fc 01       	movw	r30, r24
  ca:	10 82       	st	Z, r1
	// initialize to 0s
	unsigned char amtFuel = 0x00; // intermediate variable used for port updates
  cc:	1a 82       	std	Y+2, r1	; 0x02
	unsigned char outputLights = 0x00;
  ce:	19 82       	std	Y+1, r1	; 0x01
	while(1)
	{
		// 1) Read Inputs and assign to variables
		amtFuel = PINA & 0x0F; // Mask PINA to only get the bit you are interested in
  d0:	80 e2       	ldi	r24, 0x20	; 32
  d2:	90 e0       	ldi	r25, 0x00	; 0
  d4:	fc 01       	movw	r30, r24
  d6:	80 81       	ld	r24, Z
  d8:	8f 70       	andi	r24, 0x0F	; 15
  da:	8a 83       	std	Y+2, r24	; 0x02
		outputLights = 0x00;
  dc:	19 82       	std	Y+1, r1	; 0x01
		if(amtFuel == 1 || amtFuel ==2)
  de:	8a 81       	ldd	r24, Y+2	; 0x02
  e0:	81 30       	cpi	r24, 0x01	; 1
  e2:	19 f0       	breq	.+6      	; 0xea <main+0x4c>
  e4:	8a 81       	ldd	r24, Y+2	; 0x02
  e6:	82 30       	cpi	r24, 0x02	; 2
  e8:	19 f4       	brne	.+6      	; 0xf0 <main+0x52>
		outputLights = 0x20;
  ea:	80 e2       	ldi	r24, 0x20	; 32
  ec:	89 83       	std	Y+1, r24	; 0x01
  ee:	35 c0       	rjmp	.+106    	; 0x15a <main+0xbc>
		else if(amtFuel == 3 || amtFuel == 4)
  f0:	8a 81       	ldd	r24, Y+2	; 0x02
  f2:	83 30       	cpi	r24, 0x03	; 3
  f4:	19 f0       	breq	.+6      	; 0xfc <main+0x5e>
  f6:	8a 81       	ldd	r24, Y+2	; 0x02
  f8:	84 30       	cpi	r24, 0x04	; 4
  fa:	19 f4       	brne	.+6      	; 0x102 <main+0x64>
		outputLights = 0x30;
  fc:	80 e3       	ldi	r24, 0x30	; 48
  fe:	89 83       	std	Y+1, r24	; 0x01
 100:	2c c0       	rjmp	.+88     	; 0x15a <main+0xbc>
		else if(amtFuel == 5 || amtFuel == 6)
 102:	8a 81       	ldd	r24, Y+2	; 0x02
 104:	85 30       	cpi	r24, 0x05	; 5
 106:	19 f0       	breq	.+6      	; 0x10e <main+0x70>
 108:	8a 81       	ldd	r24, Y+2	; 0x02
 10a:	86 30       	cpi	r24, 0x06	; 6
 10c:	19 f4       	brne	.+6      	; 0x114 <main+0x76>
		outputLights = 0x38;
 10e:	88 e3       	ldi	r24, 0x38	; 56
 110:	89 83       	std	Y+1, r24	; 0x01
 112:	23 c0       	rjmp	.+70     	; 0x15a <main+0xbc>
		else if(amtFuel == 7 || amtFuel == 8 || amtFuel == 9)
 114:	8a 81       	ldd	r24, Y+2	; 0x02
 116:	87 30       	cpi	r24, 0x07	; 7
 118:	31 f0       	breq	.+12     	; 0x126 <main+0x88>
 11a:	8a 81       	ldd	r24, Y+2	; 0x02
 11c:	88 30       	cpi	r24, 0x08	; 8
 11e:	19 f0       	breq	.+6      	; 0x126 <main+0x88>
 120:	8a 81       	ldd	r24, Y+2	; 0x02
 122:	89 30       	cpi	r24, 0x09	; 9
 124:	19 f4       	brne	.+6      	; 0x12c <main+0x8e>
		outputLights = 0x3C;
 126:	8c e3       	ldi	r24, 0x3C	; 60
 128:	89 83       	std	Y+1, r24	; 0x01
 12a:	17 c0       	rjmp	.+46     	; 0x15a <main+0xbc>
		else if(amtFuel == 10 || amtFuel == 11 || amtFuel == 12)
 12c:	8a 81       	ldd	r24, Y+2	; 0x02
 12e:	8a 30       	cpi	r24, 0x0A	; 10
 130:	31 f0       	breq	.+12     	; 0x13e <main+0xa0>
 132:	8a 81       	ldd	r24, Y+2	; 0x02
 134:	8b 30       	cpi	r24, 0x0B	; 11
 136:	19 f0       	breq	.+6      	; 0x13e <main+0xa0>
 138:	8a 81       	ldd	r24, Y+2	; 0x02
 13a:	8c 30       	cpi	r24, 0x0C	; 12
 13c:	19 f4       	brne	.+6      	; 0x144 <main+0xa6>
		outputLights = 0x3E;
 13e:	8e e3       	ldi	r24, 0x3E	; 62
 140:	89 83       	std	Y+1, r24	; 0x01
 142:	0b c0       	rjmp	.+22     	; 0x15a <main+0xbc>
		else if(amtFuel == 13 || amtFuel == 14 || amtFuel == 15)
 144:	8a 81       	ldd	r24, Y+2	; 0x02
 146:	8d 30       	cpi	r24, 0x0D	; 13
 148:	31 f0       	breq	.+12     	; 0x156 <main+0xb8>
 14a:	8a 81       	ldd	r24, Y+2	; 0x02
 14c:	8e 30       	cpi	r24, 0x0E	; 14
 14e:	19 f0       	breq	.+6      	; 0x156 <main+0xb8>
 150:	8a 81       	ldd	r24, Y+2	; 0x02
 152:	8f 30       	cpi	r24, 0x0F	; 15
 154:	11 f4       	brne	.+4      	; 0x15a <main+0xbc>
		outputLights = 0x3F;
 156:	8f e3       	ldi	r24, 0x3F	; 63
 158:	89 83       	std	Y+1, r24	; 0x01
		
		if(amtFuel <= 4)
 15a:	8a 81       	ldd	r24, Y+2	; 0x02
 15c:	85 30       	cpi	r24, 0x05	; 5
 15e:	18 f4       	brcc	.+6      	; 0x166 <main+0xc8>
		outputLights = outputLights |(1 << 6);
 160:	89 81       	ldd	r24, Y+1	; 0x01
 162:	80 64       	ori	r24, 0x40	; 64
 164:	89 83       	std	Y+1, r24	; 0x01
		
		// 3) write results to port
		PORTC = outputLights;
 166:	88 e2       	ldi	r24, 0x28	; 40
 168:	90 e0       	ldi	r25, 0x00	; 0
 16a:	29 81       	ldd	r18, Y+1	; 0x01
 16c:	fc 01       	movw	r30, r24
 16e:	20 83       	st	Z, r18
	}
 170:	af cf       	rjmp	.-162    	; 0xd0 <main+0x32>

00000172 <_exit>:
 172:	f8 94       	cli

00000174 <__stop_program>:
 174:	ff cf       	rjmp	.-2      	; 0x174 <__stop_program>
