
sbhat006_lab3_part3.elf:     file format elf32-avr

Sections:
Idx Name          Size      VMA       LMA       File off  Algn
  0 .data         00000004  00800100  00000296  0000032a  2**0
                  CONTENTS, ALLOC, LOAD, DATA
  1 .text         00000296  00000000  00000000  00000094  2**1
                  CONTENTS, ALLOC, LOAD, READONLY, CODE
  2 .bss          00000005  00800104  00800104  0000032e  2**0
                  ALLOC
  3 .comment      00000030  00000000  00000000  0000032e  2**0
                  CONTENTS, READONLY
  4 .note.gnu.avr.deviceinfo 00000040  00000000  00000000  00000360  2**2
                  CONTENTS, READONLY
  5 .debug_aranges 00000028  00000000  00000000  000003a0  2**0
                  CONTENTS, READONLY, DEBUGGING
  6 .debug_info   000008dc  00000000  00000000  000003c8  2**0
                  CONTENTS, READONLY, DEBUGGING
  7 .debug_abbrev 000007e0  00000000  00000000  00000ca4  2**0
                  CONTENTS, READONLY, DEBUGGING
  8 .debug_line   0000034f  00000000  00000000  00001484  2**0
                  CONTENTS, READONLY, DEBUGGING
  9 .debug_frame  00000054  00000000  00000000  000017d4  2**2
                  CONTENTS, READONLY, DEBUGGING
 10 .debug_str    00000476  00000000  00000000  00001828  2**0
                  CONTENTS, READONLY, DEBUGGING
 11 .debug_loc    00000076  00000000  00000000  00001c9e  2**0
                  CONTENTS, READONLY, DEBUGGING
 12 .debug_ranges 00000018  00000000  00000000  00001d14  2**0
                  CONTENTS, READONLY, DEBUGGING

Disassembly of section .text:

00000000 <__vectors>:
   0:	45 c0       	rjmp	.+138    	; 0x8c <__ctors_end>
   2:	00 00       	nop
   4:	60 c0       	rjmp	.+192    	; 0xc6 <__bad_interrupt>
   6:	00 00       	nop
   8:	5e c0       	rjmp	.+188    	; 0xc6 <__bad_interrupt>
   a:	00 00       	nop
   c:	5c c0       	rjmp	.+184    	; 0xc6 <__bad_interrupt>
   e:	00 00       	nop
  10:	5a c0       	rjmp	.+180    	; 0xc6 <__bad_interrupt>
  12:	00 00       	nop
  14:	58 c0       	rjmp	.+176    	; 0xc6 <__bad_interrupt>
  16:	00 00       	nop
  18:	56 c0       	rjmp	.+172    	; 0xc6 <__bad_interrupt>
  1a:	00 00       	nop
  1c:	54 c0       	rjmp	.+168    	; 0xc6 <__bad_interrupt>
  1e:	00 00       	nop
  20:	52 c0       	rjmp	.+164    	; 0xc6 <__bad_interrupt>
  22:	00 00       	nop
  24:	50 c0       	rjmp	.+160    	; 0xc6 <__bad_interrupt>
  26:	00 00       	nop
  28:	4e c0       	rjmp	.+156    	; 0xc6 <__bad_interrupt>
  2a:	00 00       	nop
  2c:	4c c0       	rjmp	.+152    	; 0xc6 <__bad_interrupt>
  2e:	00 00       	nop
  30:	4a c0       	rjmp	.+148    	; 0xc6 <__bad_interrupt>
  32:	00 00       	nop
  34:	48 c0       	rjmp	.+144    	; 0xc6 <__bad_interrupt>
  36:	00 00       	nop
  38:	46 c0       	rjmp	.+140    	; 0xc6 <__bad_interrupt>
  3a:	00 00       	nop
  3c:	44 c0       	rjmp	.+136    	; 0xc6 <__bad_interrupt>
  3e:	00 00       	nop
  40:	42 c0       	rjmp	.+132    	; 0xc6 <__bad_interrupt>
  42:	00 00       	nop
  44:	40 c0       	rjmp	.+128    	; 0xc6 <__bad_interrupt>
  46:	00 00       	nop
  48:	3e c0       	rjmp	.+124    	; 0xc6 <__bad_interrupt>
  4a:	00 00       	nop
  4c:	3c c0       	rjmp	.+120    	; 0xc6 <__bad_interrupt>
  4e:	00 00       	nop
  50:	3a c0       	rjmp	.+116    	; 0xc6 <__bad_interrupt>
  52:	00 00       	nop
  54:	38 c0       	rjmp	.+112    	; 0xc6 <__bad_interrupt>
  56:	00 00       	nop
  58:	36 c0       	rjmp	.+108    	; 0xc6 <__bad_interrupt>
  5a:	00 00       	nop
  5c:	34 c0       	rjmp	.+104    	; 0xc6 <__bad_interrupt>
  5e:	00 00       	nop
  60:	32 c0       	rjmp	.+100    	; 0xc6 <__bad_interrupt>
  62:	00 00       	nop
  64:	30 c0       	rjmp	.+96     	; 0xc6 <__bad_interrupt>
  66:	00 00       	nop
  68:	2e c0       	rjmp	.+92     	; 0xc6 <__bad_interrupt>
  6a:	00 00       	nop
  6c:	2c c0       	rjmp	.+88     	; 0xc6 <__bad_interrupt>
  6e:	00 00       	nop
  70:	2a c0       	rjmp	.+84     	; 0xc6 <__bad_interrupt>
  72:	00 00       	nop
  74:	28 c0       	rjmp	.+80     	; 0xc6 <__bad_interrupt>
  76:	00 00       	nop
  78:	26 c0       	rjmp	.+76     	; 0xc6 <__bad_interrupt>
  7a:	00 00       	nop
  7c:	24 c0       	rjmp	.+72     	; 0xc6 <__bad_interrupt>
  7e:	00 00       	nop
  80:	22 c0       	rjmp	.+68     	; 0xc6 <__bad_interrupt>
  82:	00 00       	nop
  84:	20 c0       	rjmp	.+64     	; 0xc6 <__bad_interrupt>
  86:	00 00       	nop
  88:	1e c0       	rjmp	.+60     	; 0xc6 <__bad_interrupt>
	...

0000008c <__ctors_end>:
  8c:	11 24       	eor	r1, r1
  8e:	1f be       	out	0x3f, r1	; 63
  90:	cf ef       	ldi	r28, 0xFF	; 255
  92:	d0 e4       	ldi	r29, 0x40	; 64
  94:	de bf       	out	0x3e, r29	; 62
  96:	cd bf       	out	0x3d, r28	; 61

00000098 <__do_copy_data>:
  98:	11 e0       	ldi	r17, 0x01	; 1
  9a:	a0 e0       	ldi	r26, 0x00	; 0
  9c:	b1 e0       	ldi	r27, 0x01	; 1
  9e:	e6 e9       	ldi	r30, 0x96	; 150
  a0:	f2 e0       	ldi	r31, 0x02	; 2
  a2:	00 e0       	ldi	r16, 0x00	; 0
  a4:	0b bf       	out	0x3b, r16	; 59
  a6:	02 c0       	rjmp	.+4      	; 0xac <__do_copy_data+0x14>
  a8:	07 90       	elpm	r0, Z+
  aa:	0d 92       	st	X+, r0
  ac:	a4 30       	cpi	r26, 0x04	; 4
  ae:	b1 07       	cpc	r27, r17
  b0:	d9 f7       	brne	.-10     	; 0xa8 <__do_copy_data+0x10>

000000b2 <__do_clear_bss>:
  b2:	21 e0       	ldi	r18, 0x01	; 1
  b4:	a4 e0       	ldi	r26, 0x04	; 4
  b6:	b1 e0       	ldi	r27, 0x01	; 1
  b8:	01 c0       	rjmp	.+2      	; 0xbc <.do_clear_bss_start>

000000ba <.do_clear_bss_loop>:
  ba:	1d 92       	st	X+, r1

000000bc <.do_clear_bss_start>:
  bc:	a9 30       	cpi	r26, 0x09	; 9
  be:	b2 07       	cpc	r27, r18
  c0:	e1 f7       	brne	.-8      	; 0xba <.do_clear_bss_loop>
  c2:	bd d0       	rcall	.+378    	; 0x23e <main>
  c4:	e6 c0       	rjmp	.+460    	; 0x292 <_exit>

000000c6 <__bad_interrupt>:
  c6:	9c cf       	rjmp	.-200    	; 0x0 <__vectors>

000000c8 <SM_Tick>:
unsigned char maxLength = 2;
unsigned char A = 0x00;
unsigned char B = 0x00;

void SM_Tick()
{
  c8:	cf 93       	push	r28
  ca:	df 93       	push	r29
  cc:	cd b7       	in	r28, 0x3d	; 61
  ce:	de b7       	in	r29, 0x3e	; 62
	// Transition
	switch(DI_SM_STATE)
  d0:	80 91 07 01 	lds	r24, 0x0107	; 0x800107 <DI_SM_STATE>
  d4:	90 91 08 01 	lds	r25, 0x0108	; 0x800108 <DI_SM_STATE+0x1>
  d8:	82 30       	cpi	r24, 0x02	; 2
  da:	91 05       	cpc	r25, r1
  dc:	09 f4       	brne	.+2      	; 0xe0 <SM_Tick+0x18>
  de:	5e c0       	rjmp	.+188    	; 0x19c <SM_Tick+0xd4>
  e0:	83 30       	cpi	r24, 0x03	; 3
  e2:	91 05       	cpc	r25, r1
  e4:	30 f4       	brcc	.+12     	; 0xf2 <SM_Tick+0x2a>
  e6:	00 97       	sbiw	r24, 0x00	; 0
  e8:	51 f0       	breq	.+20     	; 0xfe <SM_Tick+0x36>
  ea:	01 97       	sbiw	r24, 0x01	; 1
  ec:	09 f4       	brne	.+2      	; 0xf0 <SM_Tick+0x28>
  ee:	44 c0       	rjmp	.+136    	; 0x178 <SM_Tick+0xb0>
  f0:	72 c0       	rjmp	.+228    	; 0x1d6 <SM_Tick+0x10e>
  f2:	83 30       	cpi	r24, 0x03	; 3
  f4:	91 05       	cpc	r25, r1
  f6:	c9 f1       	breq	.+114    	; 0x16a <SM_Tick+0xa2>
  f8:	04 97       	sbiw	r24, 0x04	; 4
  fa:	81 f1       	breq	.+96     	; 0x15c <SM_Tick+0x94>
  fc:	6c c0       	rjmp	.+216    	; 0x1d6 <SM_Tick+0x10e>
	{
		case DR_SM_WAIT_FOR_INPUT:
			if((A & 0x80) == 0x80)
  fe:	80 91 05 01 	lds	r24, 0x0105	; 0x800105 <A>
 102:	88 23       	and	r24, r24
 104:	3c f4       	brge	.+14     	; 0x114 <SM_Tick+0x4c>
			{
				DI_SM_STATE = DR_SM_LOCK;
 106:	84 e0       	ldi	r24, 0x04	; 4
 108:	90 e0       	ldi	r25, 0x00	; 0
 10a:	90 93 08 01 	sts	0x0108, r25	; 0x800108 <DI_SM_STATE+0x1>
 10e:	80 93 07 01 	sts	0x0107, r24	; 0x800107 <DI_SM_STATE>
			}
			else
			{
				DI_SM_STATE = DR_SM_WAIT_FOR_INPUT;
			}
		break;
 112:	61 c0       	rjmp	.+194    	; 0x1d6 <SM_Tick+0x10e>
		case DR_SM_WAIT_FOR_INPUT:
			if((A & 0x80) == 0x80)
			{
				DI_SM_STATE = DR_SM_LOCK;
			}
			else if((A & 0x01) == 0x01 || (A & 0x02) == 0x02 || (A & 0x04) == 0x04)
 114:	80 91 05 01 	lds	r24, 0x0105	; 0x800105 <A>
 118:	88 2f       	mov	r24, r24
 11a:	90 e0       	ldi	r25, 0x00	; 0
 11c:	81 70       	andi	r24, 0x01	; 1
 11e:	99 27       	eor	r25, r25
 120:	89 2b       	or	r24, r25
 122:	81 f4       	brne	.+32     	; 0x144 <SM_Tick+0x7c>
 124:	80 91 05 01 	lds	r24, 0x0105	; 0x800105 <A>
 128:	88 2f       	mov	r24, r24
 12a:	90 e0       	ldi	r25, 0x00	; 0
 12c:	82 70       	andi	r24, 0x02	; 2
 12e:	99 27       	eor	r25, r25
 130:	89 2b       	or	r24, r25
 132:	41 f4       	brne	.+16     	; 0x144 <SM_Tick+0x7c>
 134:	80 91 05 01 	lds	r24, 0x0105	; 0x800105 <A>
 138:	88 2f       	mov	r24, r24
 13a:	90 e0       	ldi	r25, 0x00	; 0
 13c:	84 70       	andi	r24, 0x04	; 4
 13e:	99 27       	eor	r25, r25
 140:	89 2b       	or	r24, r25
 142:	39 f0       	breq	.+14     	; 0x152 <SM_Tick+0x8a>
			{
				DI_SM_STATE = DR_SM_PROCESS_INPUT;
 144:	81 e0       	ldi	r24, 0x01	; 1
 146:	90 e0       	ldi	r25, 0x00	; 0
 148:	90 93 08 01 	sts	0x0108, r25	; 0x800108 <DI_SM_STATE+0x1>
 14c:	80 93 07 01 	sts	0x0107, r24	; 0x800107 <DI_SM_STATE>
			}
			else
			{
				DI_SM_STATE = DR_SM_WAIT_FOR_INPUT;
			}
		break;
 150:	42 c0       	rjmp	.+132    	; 0x1d6 <SM_Tick+0x10e>
			{
				DI_SM_STATE = DR_SM_PROCESS_INPUT;
			}
			else
			{
				DI_SM_STATE = DR_SM_WAIT_FOR_INPUT;
 152:	10 92 08 01 	sts	0x0108, r1	; 0x800108 <DI_SM_STATE+0x1>
 156:	10 92 07 01 	sts	0x0107, r1	; 0x800107 <DI_SM_STATE>
			}
		break;
 15a:	3d c0       	rjmp	.+122    	; 0x1d6 <SM_Tick+0x10e>
		
		case DR_SM_LOCK:
			DI_SM_STATE = DR_SM_WAIT_FOR_INPUT_FALL;
 15c:	82 e0       	ldi	r24, 0x02	; 2
 15e:	90 e0       	ldi	r25, 0x00	; 0
 160:	90 93 08 01 	sts	0x0108, r25	; 0x800108 <DI_SM_STATE+0x1>
 164:	80 93 07 01 	sts	0x0107, r24	; 0x800107 <DI_SM_STATE>
		break;
 168:	36 c0       	rjmp	.+108    	; 0x1d6 <SM_Tick+0x10e>
		
		case DR_SM_UNLOCK:
			DI_SM_STATE = DR_SM_WAIT_FOR_INPUT_FALL;
 16a:	82 e0       	ldi	r24, 0x02	; 2
 16c:	90 e0       	ldi	r25, 0x00	; 0
 16e:	90 93 08 01 	sts	0x0108, r25	; 0x800108 <DI_SM_STATE+0x1>
 172:	80 93 07 01 	sts	0x0107, r24	; 0x800107 <DI_SM_STATE>
		break;
 176:	2f c0       	rjmp	.+94     	; 0x1d6 <SM_Tick+0x10e>
		
		case DR_SM_PROCESS_INPUT:
			if((A & 0x80) == 0x80)
 178:	80 91 05 01 	lds	r24, 0x0105	; 0x800105 <A>
 17c:	88 23       	and	r24, r24
 17e:	3c f4       	brge	.+14     	; 0x18e <SM_Tick+0xc6>
			{
				DI_SM_STATE = DR_SM_LOCK;
 180:	84 e0       	ldi	r24, 0x04	; 4
 182:	90 e0       	ldi	r25, 0x00	; 0
 184:	90 93 08 01 	sts	0x0108, r25	; 0x800108 <DI_SM_STATE+0x1>
 188:	80 93 07 01 	sts	0x0107, r24	; 0x800107 <DI_SM_STATE>
				break;
 18c:	24 c0       	rjmp	.+72     	; 0x1d6 <SM_Tick+0x10e>
			}
			DI_SM_STATE = DR_SM_WAIT_FOR_INPUT_FALL;
 18e:	82 e0       	ldi	r24, 0x02	; 2
 190:	90 e0       	ldi	r25, 0x00	; 0
 192:	90 93 08 01 	sts	0x0108, r25	; 0x800108 <DI_SM_STATE+0x1>
 196:	80 93 07 01 	sts	0x0107, r24	; 0x800107 <DI_SM_STATE>
		break;
 19a:	1d c0       	rjmp	.+58     	; 0x1d6 <SM_Tick+0x10e>
		
		case DR_SM_WAIT_FOR_INPUT_FALL:
			if((A | 0x00) == 0x00)
 19c:	80 91 05 01 	lds	r24, 0x0105	; 0x800105 <A>
 1a0:	88 23       	and	r24, r24
 1a2:	91 f4       	brne	.+36     	; 0x1c8 <SM_Tick+0x100>
			{
				// It is correct!
				if(next == maxLength)
 1a4:	90 91 04 01 	lds	r25, 0x0104	; 0x800104 <__data_end>
 1a8:	80 91 02 01 	lds	r24, 0x0102	; 0x800102 <maxLength>
 1ac:	98 17       	cp	r25, r24
 1ae:	39 f4       	brne	.+14     	; 0x1be <SM_Tick+0xf6>
				{
					DI_SM_STATE = DR_SM_UNLOCK;
 1b0:	83 e0       	ldi	r24, 0x03	; 3
 1b2:	90 e0       	ldi	r25, 0x00	; 0
 1b4:	90 93 08 01 	sts	0x0108, r25	; 0x800108 <DI_SM_STATE+0x1>
 1b8:	80 93 07 01 	sts	0x0107, r24	; 0x800107 <DI_SM_STATE>
			}
			else
			{
				DI_SM_STATE = DR_SM_WAIT_FOR_INPUT_FALL;
			}
		break;		
 1bc:	0b c0       	rjmp	.+22     	; 0x1d4 <SM_Tick+0x10c>
					DI_SM_STATE = DR_SM_UNLOCK;
				}
				else
				{
					// Not done yet.
					DI_SM_STATE = DR_SM_WAIT_FOR_INPUT;
 1be:	10 92 08 01 	sts	0x0108, r1	; 0x800108 <DI_SM_STATE+0x1>
 1c2:	10 92 07 01 	sts	0x0107, r1	; 0x800107 <DI_SM_STATE>
			}
			else
			{
				DI_SM_STATE = DR_SM_WAIT_FOR_INPUT_FALL;
			}
		break;		
 1c6:	06 c0       	rjmp	.+12     	; 0x1d4 <SM_Tick+0x10c>
					DI_SM_STATE = DR_SM_WAIT_FOR_INPUT;
				}
			}
			else
			{
				DI_SM_STATE = DR_SM_WAIT_FOR_INPUT_FALL;
 1c8:	82 e0       	ldi	r24, 0x02	; 2
 1ca:	90 e0       	ldi	r25, 0x00	; 0
 1cc:	90 93 08 01 	sts	0x0108, r25	; 0x800108 <DI_SM_STATE+0x1>
 1d0:	80 93 07 01 	sts	0x0107, r24	; 0x800107 <DI_SM_STATE>
			}
		break;		
 1d4:	00 00       	nop
	}
	
	// State Action tree
	switch(DI_SM_STATE)
 1d6:	80 91 07 01 	lds	r24, 0x0107	; 0x800107 <DI_SM_STATE>
 1da:	90 91 08 01 	lds	r25, 0x0108	; 0x800108 <DI_SM_STATE+0x1>
 1de:	83 30       	cpi	r24, 0x03	; 3
 1e0:	91 05       	cpc	r25, r1
 1e2:	49 f0       	breq	.+18     	; 0x1f6 <SM_Tick+0x12e>
 1e4:	84 30       	cpi	r24, 0x04	; 4
 1e6:	91 05       	cpc	r25, r1
 1e8:	19 f0       	breq	.+6      	; 0x1f0 <SM_Tick+0x128>
 1ea:	01 97       	sbiw	r24, 0x01	; 1
 1ec:	41 f0       	breq	.+16     	; 0x1fe <SM_Tick+0x136>
				next = 0;
		break;
		
	}
	
}
 1ee:	23 c0       	rjmp	.+70     	; 0x236 <SM_Tick+0x16e>
	
	// State Action tree
	switch(DI_SM_STATE)
	{
		case DR_SM_LOCK:
			B = 0x00;
 1f0:	10 92 06 01 	sts	0x0106, r1	; 0x800106 <B>
		break;
 1f4:	20 c0       	rjmp	.+64     	; 0x236 <SM_Tick+0x16e>
		
		case DR_SM_UNLOCK:
			B = 0x01;
 1f6:	81 e0       	ldi	r24, 0x01	; 1
 1f8:	80 93 06 01 	sts	0x0106, r24	; 0x800106 <B>
		break;
 1fc:	1c c0       	rjmp	.+56     	; 0x236 <SM_Tick+0x16e>
		
		case DR_SM_PROCESS_INPUT:
			if(Sequence[next] == (A & 0x07))
 1fe:	80 91 04 01 	lds	r24, 0x0104	; 0x800104 <__data_end>
 202:	88 2f       	mov	r24, r24
 204:	90 e0       	ldi	r25, 0x00	; 0
 206:	80 50       	subi	r24, 0x00	; 0
 208:	9f 4f       	sbci	r25, 0xFF	; 255
 20a:	fc 01       	movw	r30, r24
 20c:	80 81       	ld	r24, Z
 20e:	28 2f       	mov	r18, r24
 210:	30 e0       	ldi	r19, 0x00	; 0
 212:	80 91 05 01 	lds	r24, 0x0105	; 0x800105 <A>
 216:	88 2f       	mov	r24, r24
 218:	90 e0       	ldi	r25, 0x00	; 0
 21a:	87 70       	andi	r24, 0x07	; 7
 21c:	99 27       	eor	r25, r25
 21e:	28 17       	cp	r18, r24
 220:	39 07       	cpc	r19, r25
 222:	31 f4       	brne	.+12     	; 0x230 <SM_Tick+0x168>
				next++;
 224:	80 91 04 01 	lds	r24, 0x0104	; 0x800104 <__data_end>
 228:	8f 5f       	subi	r24, 0xFF	; 255
 22a:	80 93 04 01 	sts	0x0104, r24	; 0x800104 <__data_end>
			else
				next = 0;
		break;
 22e:	02 c0       	rjmp	.+4      	; 0x234 <SM_Tick+0x16c>
		
		case DR_SM_PROCESS_INPUT:
			if(Sequence[next] == (A & 0x07))
				next++;
			else
				next = 0;
 230:	10 92 04 01 	sts	0x0104, r1	; 0x800104 <__data_end>
		break;
 234:	00 00       	nop
		
	}
	
}
 236:	00 00       	nop
 238:	df 91       	pop	r29
 23a:	cf 91       	pop	r28
 23c:	08 95       	ret

0000023e <main>:

int main(void)
{
 23e:	cf 93       	push	r28
 240:	df 93       	push	r29
 242:	cd b7       	in	r28, 0x3d	; 61
 244:	de b7       	in	r29, 0x3e	; 62
	DDRA = 0x00; PORTA = 0x00;
 246:	81 e2       	ldi	r24, 0x21	; 33
 248:	90 e0       	ldi	r25, 0x00	; 0
 24a:	fc 01       	movw	r30, r24
 24c:	10 82       	st	Z, r1
 24e:	82 e2       	ldi	r24, 0x22	; 34
 250:	90 e0       	ldi	r25, 0x00	; 0
 252:	fc 01       	movw	r30, r24
 254:	10 82       	st	Z, r1
	DDRB = 0xFF; PORTB = 0x00;
 256:	84 e2       	ldi	r24, 0x24	; 36
 258:	90 e0       	ldi	r25, 0x00	; 0
 25a:	2f ef       	ldi	r18, 0xFF	; 255
 25c:	fc 01       	movw	r30, r24
 25e:	20 83       	st	Z, r18
 260:	85 e2       	ldi	r24, 0x25	; 37
 262:	90 e0       	ldi	r25, 0x00	; 0
 264:	fc 01       	movw	r30, r24
 266:	10 82       	st	Z, r1
	
	// INIT
	DI_SM_STATE = DR_SM_WAIT_FOR_INPUT;
 268:	10 92 08 01 	sts	0x0108, r1	; 0x800108 <DI_SM_STATE+0x1>
 26c:	10 92 07 01 	sts	0x0107, r1	; 0x800107 <DI_SM_STATE>
	B = 0x00;
 270:	10 92 06 01 	sts	0x0106, r1	; 0x800106 <B>
    /* Replace with your application code */
    while (1) 
    {
		A = PINA & 0x87;
 274:	80 e2       	ldi	r24, 0x20	; 32
 276:	90 e0       	ldi	r25, 0x00	; 0
 278:	fc 01       	movw	r30, r24
 27a:	80 81       	ld	r24, Z
 27c:	87 78       	andi	r24, 0x87	; 135
 27e:	80 93 05 01 	sts	0x0105, r24	; 0x800105 <A>
		SM_Tick();
		PORTB = B;
 282:	22 df       	rcall	.-444    	; 0xc8 <SM_Tick>
 284:	85 e2       	ldi	r24, 0x25	; 37
 286:	90 e0       	ldi	r25, 0x00	; 0
 288:	20 91 06 01 	lds	r18, 0x0106	; 0x800106 <B>
 28c:	fc 01       	movw	r30, r24
    }
 28e:	20 83       	st	Z, r18
 290:	f1 cf       	rjmp	.-30     	; 0x274 <main+0x36>

00000292 <_exit>:
 292:	f8 94       	cli

00000294 <__stop_program>:
 294:	ff cf       	rjmp	.-2      	; 0x294 <__stop_program>
